; Function Attrs: null_pointer_is_valid sspstrong uwtable
define ptr @prefs_get_title_by_name(ptr noundef %0) local_unnamed_addr #1 {
  %2 = load ptr, ptr @prefs_modules, align 8
  %3 = tail call ptr @wmem_tree_lookup_string(ptr noundef %2, ptr noundef %0, i32 noundef 1)
  %.not = icmp eq ptr %3, null
  br i1 %.not, label %11, label %4

4:                                                ; preds = %1
  %5 = getelementptr inbounds nuw i8, ptr %3, i64 72
  %6 = load i8, ptr %5, align 8, !range !6, !noundef !7
  %7 = trunc nuw i8 %6 to i1
  br i1 %7, label %11, label %8

8:                                                ; preds = %4
  %9 = getelementptr inbounds nuw i8, ptr %3, i64 8
  %10 = load ptr, ptr %9, align 8
  br label %11

11:                                               ; preds = %1, %4, %8
  %12 = phi ptr [ %10, %8 ], [ null, %4 ], [ null, %1 ]
  ret ptr %12
}